target datalayout = "e-m:e-p270:32:32-p271:32:32-p272:64:64-i64:64-i128:128-f80:128-n8:16:32:64-S128"
target triple = "x86_64-pc-linux-gnu"

%"struct.std::_Rb_tree_header" = type { %"struct.std::_Rb_tree_node_base", i64 }
%"struct.std::_Rb_tree_node_base" = type { i32, ptr, ptr, ptr }
%"class.cvc5::internal::NodeTemplate" = type { ptr }
%"class.cvc5::internal::NodeTemplate.36" = type { ptr }
%"class.std::map.40" = type { %"class.std::_Rb_tree.41" }
%"class.std::_Rb_tree.41" = type { %"struct.std::_Rb_tree<cvc5::internal::NodeTemplate<false>, std::pair<const cvc5::internal::NodeTemplate<false>, cvc5::internal::NodeTemplate<true>>, std::_Select1st<std::pair<const cvc5::internal::NodeTemplate<false>, cvc5::internal::NodeTemplate<true>>>, std::less<cvc5::internal::NodeTemplate<false>>>::_Rb_tree_impl" }
%"struct.std::_Rb_tree<cvc5::internal::NodeTemplate<false>, std::pair<const cvc5::internal::NodeTemplate<false>, cvc5::internal::NodeTemplate<true>>, std::_Select1st<std::pair<const cvc5::internal::NodeTemplate<false>, cvc5::internal::NodeTemplate<true>>>, std::less<cvc5::internal::NodeTemplate<false>>>::_Rb_tree_impl" = type { [8 x i8], %"struct.std::_Rb_tree_header" }
%"class.std::map.48" = type { %"class.std::_Rb_tree.49" }
%"class.std::_Rb_tree.49" = type { %"struct.std::_Rb_tree<std::pair<cvc5::internal::TypeNode, unsigned int>, std::pair<const std::pair<cvc5::internal::TypeNode, unsigned int>, unsigned int>, std::_Select1st<std::pair<const std::pair<cvc5::internal::TypeNode, unsigned int>, unsigned int>>, std::less<std::pair<cvc5::internal::TypeNode, unsigned int>>>::_Rb_tree_impl" }
%"struct.std::_Rb_tree<std::pair<cvc5::internal::TypeNode, unsigned int>, std::pair<const std::pair<cvc5::internal::TypeNode, unsigned int>, unsigned int>, std::_Select1st<std::pair<const std::pair<cvc5::internal::TypeNode, unsigned int>, unsigned int>>, std::less<std::pair<cvc5::internal::TypeNode, unsigned int>>>::_Rb_tree_impl" = type { [8 x i8], %"struct.std::_Rb_tree_header" }

; Function Attrs: mustprogress nounwind uwtable
define linkonce_odr hidden void @_ZNSt15__new_allocatorISt13_Rb_tree_nodeISt4pairIKN4cvc58internal12NodeTemplateILb0EEENS4_ILb1EEEEEEC2Ev(ptr noundef nonnull align 1 dereferenceable(1) %0) unnamed_addr #4 comdat align 2 {
  %2 = alloca ptr, align 8
  store ptr %0, ptr %2, align 8, !tbaa !254
  ret void
}

; Function Attrs: mustprogress nounwind uwtable
define linkonce_odr hidden void @_ZNSt15_Rb_tree_header8_M_resetEv(ptr noundef nonnull align 8 dereferenceable(40) %0) #4 comdat align 2 {
  %2 = alloca ptr, align 8
  store ptr %0, ptr %2, align 8, !tbaa !191
  %3 = load ptr, ptr %2, align 8
  %4 = getelementptr inbounds nuw %"struct.std::_Rb_tree_header", ptr %3, i32 0, i32 0
  %5 = getelementptr inbounds nuw %"struct.std::_Rb_tree_node_base", ptr %4, i32 0, i32 1
  store ptr null, ptr %5, align 8, !tbaa !196
  %6 = getelementptr inbounds nuw %"struct.std::_Rb_tree_header", ptr %3, i32 0, i32 0
  %7 = getelementptr inbounds nuw %"struct.std::_Rb_tree_header", ptr %3, i32 0, i32 0
  %8 = getelementptr inbounds nuw %"struct.std::_Rb_tree_node_base", ptr %7, i32 0, i32 2
  store ptr %6, ptr %8, align 8, !tbaa !197
  %9 = getelementptr inbounds nuw %"struct.std::_Rb_tree_header", ptr %3, i32 0, i32 0
  %10 = getelementptr inbounds nuw %"struct.std::_Rb_tree_header", ptr %3, i32 0, i32 0
  %11 = getelementptr inbounds nuw %"struct.std::_Rb_tree_node_base", ptr %10, i32 0, i32 3
  store ptr %9, ptr %11, align 8, !tbaa !198
  %12 = getelementptr inbounds nuw %"struct.std::_Rb_tree_header", ptr %3, i32 0, i32 1
  store i64 0, ptr %12, align 8, !tbaa !199
  ret void
}

; Function Attrs: mustprogress nounwind uwtable
define linkonce_odr hidden void @_ZNSt15__new_allocatorISt13_Rb_tree_nodeISt4pairIKS1_IN4cvc58internal8TypeNodeEjEjEEEC2Ev(ptr noundef nonnull align 1 dereferenceable(1) %0) unnamed_addr #4 comdat align 2 {
  %2 = alloca ptr, align 8
  store ptr %0, ptr %2, align 8, !tbaa !244
  ret void
}

; Function Attrs: mustprogress nounwind uwtable
define linkonce_odr hidden void @_ZNSt20_Rb_tree_key_compareISt4lessIN4cvc58internal12NodeTemplateILb0EEEEEC2Ev(ptr noundef nonnull align 1 dereferenceable(1) %0) unnamed_addr #4 comdat align 2 {
  %2 = alloca ptr, align 8
  store ptr %0, ptr %2, align 8, !tbaa !252
  ret void
}

; Function Attrs: mustprogress nounwind uwtable
define linkonce_odr hidden void @_ZNSaISt13_Rb_tree_nodeISt4pairIKN4cvc58internal12NodeTemplateILb0EEENS3_ILb1EEEEEEC2Ev(ptr noundef nonnull align 1 dereferenceable(1) %0) unnamed_addr #4 comdat align 2 {
  %2 = alloca ptr, align 8
  store ptr %0, ptr %2, align 8, !tbaa !250
  %3 = load ptr, ptr %2, align 8
  call void @_ZNSt15__new_allocatorISt13_Rb_tree_nodeISt4pairIKN4cvc58internal12NodeTemplateILb0EEENS4_ILb1EEEEEEC2Ev(ptr noundef nonnull align 1 dereferenceable(1) %3) #3
  ret void
}

; Function Attrs: mustprogress nounwind uwtable
define linkonce_odr hidden void @_ZNSt15_Rb_tree_headerC2Ev(ptr noundef nonnull align 8 dereferenceable(40) %0) unnamed_addr #4 comdat align 2 personality ptr @__gxx_personality_v0 {
  %2 = alloca ptr, align 8
  store ptr %0, ptr %2, align 8, !tbaa !191
  %3 = load ptr, ptr %2, align 8
  %4 = getelementptr inbounds nuw %"struct.std::_Rb_tree_header", ptr %3, i32 0, i32 0
  %5 = getelementptr inbounds nuw %"struct.std::_Rb_tree_node_base", ptr %4, i32 0, i32 0
  store i32 0, ptr %5, align 8, !tbaa !193
  invoke void @_ZNSt15_Rb_tree_header8_M_resetEv(ptr noundef nonnull align 8 dereferenceable(40) %3)
          to label %6 unwind label %7

6:                                                ; preds = %1
  ret void

7:                                                ; preds = %1
  %8 = landingpad { ptr, i32 }
          catch ptr null
  %9 = extractvalue { ptr, i32 } %8, 0
  call void @__clang_call_terminate(ptr %9) #19
  unreachable
}

; Function Attrs: mustprogress nounwind uwtable
define linkonce_odr hidden void @_ZNSt20_Rb_tree_key_compareISt4lessISt4pairIN4cvc58internal8TypeNodeEjEEEC2Ev(ptr noundef nonnull align 1 dereferenceable(1) %0) unnamed_addr #4 comdat align 2 {
  %2 = alloca ptr, align 8
  store ptr %0, ptr %2, align 8, !tbaa !216
  ret void
}

; Function Attrs: mustprogress nounwind uwtable
define linkonce_odr hidden void @_ZNSaISt13_Rb_tree_nodeISt4pairIKS0_IN4cvc58internal8TypeNodeEjEjEEEC2Ev(ptr noundef nonnull align 1 dereferenceable(1) %0) unnamed_addr #4 comdat align 2 {
  %2 = alloca ptr, align 8
  store ptr %0, ptr %2, align 8, !tbaa !242
  %3 = load ptr, ptr %2, align 8
  call void @_ZNSt15__new_allocatorISt13_Rb_tree_nodeISt4pairIKS1_IN4cvc58internal8TypeNodeEjEjEEEC2Ev(ptr noundef nonnull align 1 dereferenceable(1) %3) #3
  ret void
}

; Function Attrs: mustprogress nounwind uwtable
define linkonce_odr hidden void @_ZNSt8_Rb_treeIN4cvc58internal12NodeTemplateILb0EEESt4pairIKS3_NS2_ILb1EEEESt10_Select1stIS7_ESt4lessIS3_ESaIS7_EE13_Rb_tree_implISB_Lb1EEC2Ev(ptr noundef nonnull align 8 dereferenceable(48) %0) unnamed_addr #4 comdat align 2 {
  %2 = alloca ptr, align 8
  store ptr %0, ptr %2, align 8, !tbaa !248
  %3 = load ptr, ptr %2, align 8
  call void @_ZNSaISt13_Rb_tree_nodeISt4pairIKN4cvc58internal12NodeTemplateILb0EEENS3_ILb1EEEEEEC2Ev(ptr noundef nonnull align 1 dereferenceable(1) %3) #3
  call void @_ZNSt20_Rb_tree_key_compareISt4lessIN4cvc58internal12NodeTemplateILb0EEEEEC2Ev(ptr noundef nonnull align 1 dereferenceable(1) %3) #3
  %4 = getelementptr inbounds i8, ptr %3, i64 8
  call void @_ZNSt15_Rb_tree_headerC2Ev(ptr noundef nonnull align 8 dereferenceable(40) %4) #3
  ret void
}

; Function Attrs: mustprogress nounwind uwtable
define linkonce_odr hidden void @_ZNSt8_Rb_treeISt4pairIN4cvc58internal8TypeNodeEjES0_IKS4_jESt10_Select1stIS6_ESt4lessIS4_ESaIS6_EE13_Rb_tree_implISA_Lb1EEC2Ev(ptr noundef nonnull align 8 dereferenceable(48) %0) unnamed_addr #4 comdat align 2 {
  %2 = alloca ptr, align 8
  store ptr %0, ptr %2, align 8, !tbaa !240
  %3 = load ptr, ptr %2, align 8
  call void @_ZNSaISt13_Rb_tree_nodeISt4pairIKS0_IN4cvc58internal8TypeNodeEjEjEEEC2Ev(ptr noundef nonnull align 1 dereferenceable(1) %3) #3
  call void @_ZNSt20_Rb_tree_key_compareISt4lessISt4pairIN4cvc58internal8TypeNodeEjEEEC2Ev(ptr noundef nonnull align 1 dereferenceable(1) %3) #3
  %4 = getelementptr inbounds i8, ptr %3, i64 8
  call void @_ZNSt15_Rb_tree_headerC2Ev(ptr noundef nonnull align 8 dereferenceable(40) %4) #3
  ret void
}

; Function Attrs: mustprogress nounwind uwtable
define linkonce_odr hidden void @_ZNSt8_Rb_treeIN4cvc58internal12NodeTemplateILb0EEESt4pairIKS3_NS2_ILb1EEEESt10_Select1stIS7_ESt4lessIS3_ESaIS7_EEC2Ev(ptr noundef nonnull align 8 dereferenceable(48) %0) unnamed_addr #4 comdat align 2 {
  %2 = alloca ptr, align 8
  store ptr %0, ptr %2, align 8, !tbaa !246
  %3 = load ptr, ptr %2, align 8
  %4 = getelementptr inbounds nuw %"class.std::_Rb_tree.41", ptr %3, i32 0, i32 0
  call void @_ZNSt8_Rb_treeIN4cvc58internal12NodeTemplateILb0EEESt4pairIKS3_NS2_ILb1EEEESt10_Select1stIS7_ESt4lessIS3_ESaIS7_EE13_Rb_tree_implISB_Lb1EEC2Ev(ptr noundef nonnull align 8 dereferenceable(48) %4) #3
  ret void
}

; Function Attrs: mustprogress nounwind uwtable
define linkonce_odr hidden void @_ZNSt8_Rb_treeISt4pairIN4cvc58internal8TypeNodeEjES0_IKS4_jESt10_Select1stIS6_ESt4lessIS4_ESaIS6_EEC2Ev(ptr noundef nonnull align 8 dereferenceable(48) %0) unnamed_addr #4 comdat align 2 {
  %2 = alloca ptr, align 8
  store ptr %0, ptr %2, align 8, !tbaa !238
  %3 = load ptr, ptr %2, align 8
  %4 = getelementptr inbounds nuw %"class.std::_Rb_tree.49", ptr %3, i32 0, i32 0
  call void @_ZNSt8_Rb_treeISt4pairIN4cvc58internal8TypeNodeEjES0_IKS4_jESt10_Select1stIS6_ESt4lessIS4_ESaIS6_EE13_Rb_tree_implISA_Lb1EEC2Ev(ptr noundef nonnull align 8 dereferenceable(48) %4) #3
  ret void
}

; Function Attrs: mustprogress nounwind uwtable
define linkonce_odr hidden void @_ZN4cvc58internal12NodeTemplateILb0EED2Ev(ptr noundef nonnull align 8 dereferenceable(8) %0) unnamed_addr #4 comdat align 2 {
  %2 = alloca ptr, align 8
  store ptr %0, ptr %2, align 8, !tbaa !134
  ret void
}

; Function Attrs: mustprogress nounwind uwtable
define linkonce_odr hidden void @_ZN4cvc58internal12NodeTemplateILb0EEC2ERKS2_(ptr noundef nonnull align 8 dereferenceable(8) %0, ptr noundef nonnull align 8 dereferenceable(8) %1) unnamed_addr #4 comdat align 2 {
  %3 = alloca ptr, align 8
  %4 = alloca ptr, align 8
  store ptr %0, ptr %3, align 8, !tbaa !134
  store ptr %1, ptr %4, align 8, !tbaa !134
  %5 = load ptr, ptr %3, align 8
  %6 = load ptr, ptr %4, align 8, !tbaa !134
  %7 = getelementptr inbounds nuw %"class.cvc5::internal::NodeTemplate.36", ptr %6, i32 0, i32 0
  %8 = load ptr, ptr %7, align 8, !tbaa !136
  %9 = getelementptr inbounds nuw %"class.cvc5::internal::NodeTemplate.36", ptr %5, i32 0, i32 0
  store ptr %8, ptr %9, align 8, !tbaa !136
  ret void
}

; Function Attrs: mustprogress nounwind uwtable
define linkonce_odr hidden void @_ZNSt3mapIN4cvc58internal12NodeTemplateILb0EEENS2_ILb1EEESt4lessIS3_ESaISt4pairIKS3_S4_EEEC2Ev(ptr noundef nonnull align 8 dereferenceable(48) %0) unnamed_addr #4 comdat align 2 {
  %2 = alloca ptr, align 8
  store ptr %0, ptr %2, align 8, !tbaa !146
  %3 = load ptr, ptr %2, align 8
  %4 = getelementptr inbounds nuw %"class.std::map.40", ptr %3, i32 0, i32 0
  call void @_ZNSt8_Rb_treeIN4cvc58internal12NodeTemplateILb0EEESt4pairIKS3_NS2_ILb1EEEESt10_Select1stIS7_ESt4lessIS3_ESaIS7_EEC2Ev(ptr noundef nonnull align 8 dereferenceable(48) %4) #3
  ret void
}

; Function Attrs: mustprogress nounwind uwtable
define linkonce_odr hidden void @_ZNSt3mapISt4pairIN4cvc58internal8TypeNodeEjEjSt4lessIS4_ESaIS0_IKS4_jEEEC2Ev(ptr noundef nonnull align 8 dereferenceable(48) %0) unnamed_addr #4 comdat align 2 {
  %2 = alloca ptr, align 8
  store ptr %0, ptr %2, align 8, !tbaa !144
  %3 = load ptr, ptr %2, align 8
  %4 = getelementptr inbounds nuw %"class.std::map.48", ptr %3, i32 0, i32 0
  call void @_ZNSt8_Rb_treeISt4pairIN4cvc58internal8TypeNodeEjES0_IKS4_jESt10_Select1stIS6_ESt4lessIS4_ESaIS6_EEC2Ev(ptr noundef nonnull align 8 dereferenceable(48) %4) #3
  ret void
}

; Function Attrs: mustprogress uwtable
define hidden void @_ZN4cvc58internal4expr12TermCanonize16getCanonicalTermENS0_12NodeTemplateILb0EEEbb(ptr dead_on_unwind noalias writable sret(%"class.cvc5::internal::NodeTemplate") align 8 %0, ptr noundef nonnull align 8 dereferenceable(216) %1, ptr noundef %2, i1 noundef zeroext %3, i1 noundef zeroext %4) #5 align 2 personality ptr @__gxx_personality_v0 {
  %6 = alloca ptr, align 8
  %7 = alloca ptr, align 8
  %8 = alloca ptr, align 8
  %9 = alloca i8, align 1
  %10 = alloca i8, align 1
  %11 = alloca %"class.std::map.48", align 8
  %12 = alloca %"class.std::map.40", align 8
  %13 = alloca %"class.cvc5::internal::NodeTemplate.36", align 8
  %14 = alloca ptr, align 8
  %15 = alloca i32, align 4
  store ptr %0, ptr %6, align 8
  store ptr %1, ptr %7, align 8, !tbaa !3
  store ptr %2, ptr %8, align 8, !tbaa !134
  %16 = zext i1 %3 to i8
  store i8 %16, ptr %9, align 1, !tbaa !71
  %17 = zext i1 %4 to i8
  store i8 %17, ptr %10, align 1, !tbaa !71
  %18 = load ptr, ptr %7, align 8
  call void @llvm.lifetime.start.p0(i64 48, ptr %11) #3
  call void @_ZNSt3mapISt4pairIN4cvc58internal8TypeNodeEjEjSt4lessIS4_ESaIS0_IKS4_jEEEC2Ev(ptr noundef nonnull align 8 dereferenceable(48) %11) #3
  call void @llvm.lifetime.start.p0(i64 48, ptr %12) #3
  call void @_ZNSt3mapIN4cvc58internal12NodeTemplateILb0EEENS2_ILb1EEESt4lessIS3_ESaISt4pairIKS3_S4_EEEC2Ev(ptr noundef nonnull align 8 dereferenceable(48) %12) #3
  invoke void @_ZN4cvc58internal12NodeTemplateILb0EEC2ERKS2_(ptr noundef nonnull align 8 dereferenceable(8) %13, ptr noundef nonnull align 8 dereferenceable(8) %2)
          to label %19 unwind label %25

19:                                               ; preds = %5
  %20 = load i8, ptr %9, align 1, !tbaa !71, !range !99, !noundef !100
  %21 = trunc i8 %20 to i1
  %22 = load i8, ptr %10, align 1, !tbaa !71, !range !99, !noundef !100
  %23 = trunc i8 %22 to i1
  invoke void @_ZN4cvc58internal4expr12TermCanonize16getCanonicalTermENS0_12NodeTemplateILb0EEEbbRSt3mapISt4pairINS0_8TypeNodeEjEjSt4lessIS8_ESaIS6_IKS8_jEEERS5_IS4_NS3_ILb1EEES9_IS4_ESaIS6_IKS4_SG_EEE(ptr dead_on_unwind writable sret(%"class.cvc5::internal::NodeTemplate") align 8 %0, ptr noundef nonnull align 8 dereferenceable(216) %18, ptr noundef %13, i1 noundef zeroext %21, i1 noundef zeroext %23, ptr noundef nonnull align 8 dereferenceable(48) %11, ptr noundef nonnull align 8 dereferenceable(48) %12)
          to label %24 unwind label %29

24:                                               ; preds = %19
  call void @_ZN4cvc58internal12NodeTemplateILb0EED2Ev(ptr noundef nonnull align 8 dereferenceable(8) %13) #3
  call void @_ZNSt3mapIN4cvc58internal12NodeTemplateILb0EEENS2_ILb1EEESt4lessIS3_ESaISt4pairIKS3_S4_EEED2Ev(ptr noundef nonnull align 8 dereferenceable(48) %12) #3
  call void @llvm.lifetime.end.p0(i64 48, ptr %12) #3
  call void @_ZNSt3mapISt4pairIN4cvc58internal8TypeNodeEjEjSt4lessIS4_ESaIS0_IKS4_jEEED2Ev(ptr noundef nonnull align 8 dereferenceable(48) %11) #3
  call void @llvm.lifetime.end.p0(i64 48, ptr %11) #3
  ret void

25:                                               ; preds = %5
  %26 = landingpad { ptr, i32 }
          cleanup
  %27 = extractvalue { ptr, i32 } %26, 0
  store ptr %27, ptr %14, align 8
  %28 = extractvalue { ptr, i32 } %26, 1
  store i32 %28, ptr %15, align 4
  br label %33

29:                                               ; preds = %19
  %30 = landingpad { ptr, i32 }
          cleanup
  %31 = extractvalue { ptr, i32 } %30, 0
  store ptr %31, ptr %14, align 8
  %32 = extractvalue { ptr, i32 } %30, 1
  store i32 %32, ptr %15, align 4
  call void @_ZN4cvc58internal12NodeTemplateILb0EED2Ev(ptr noundef nonnull align 8 dereferenceable(8) %13) #3
  br label %33

33:                                               ; preds = %29, %25
  call void @_ZNSt3mapIN4cvc58internal12NodeTemplateILb0EEENS2_ILb1EEESt4lessIS3_ESaISt4pairIKS3_S4_EEED2Ev(ptr noundef nonnull align 8 dereferenceable(48) %12) #3
  call void @llvm.lifetime.end.p0(i64 48, ptr %12) #3
  call void @_ZNSt3mapISt4pairIN4cvc58internal8TypeNodeEjEjSt4lessIS4_ESaIS0_IKS4_jEEED2Ev(ptr noundef nonnull align 8 dereferenceable(48) %11) #3
  call void @llvm.lifetime.end.p0(i64 48, ptr %11) #3
  br label %34

34:                                               ; preds = %33
  %35 = load ptr, ptr %14, align 8
  %36 = load i32, ptr %15, align 4
  %37 = insertvalue { ptr, i32 } poison, ptr %35, 0
  %38 = insertvalue { ptr, i32 } %37, i32 %36, 1
  resume { ptr, i32 } %38
}