; Function Attrs: mustprogress uwtable
define hidden void @_ZN4cvc58internal4expr12TermCanonize16getCanonicalTermENS0_12NodeTemplateILb0EEEbb(ptr dead_on_unwind noalias writable sret(%"class.cvc5::internal::NodeTemplate") align 8 %0, ptr noundef nonnull align 8 dereferenceable(216) %1, ptr noundef readonly captures(none) %2, i1 noundef zeroext %3, i1 noundef zeroext %4) local_unnamed_addr #4 align 2 personality ptr @__gxx_personality_v0 {
  %6 = alloca %"class.std::map.48", align 8
  %7 = alloca %"class.std::map.40", align 8
  %8 = alloca %"class.cvc5::internal::NodeTemplate.36", align 8
  call void @llvm.lifetime.start.p0(i64 48, ptr nonnull %6) #25
  %9 = getelementptr inbounds nuw i8, ptr %6, i64 8
  store i32 0, ptr %9, align 8, !tbaa !34
  %10 = getelementptr inbounds nuw i8, ptr %6, i64 16
  store ptr null, ptr %10, align 8, !tbaa !35
  %11 = getelementptr inbounds nuw i8, ptr %6, i64 24
  store ptr %9, ptr %11, align 8, !tbaa !36
  %12 = getelementptr inbounds nuw i8, ptr %6, i64 32
  store ptr %9, ptr %12, align 8, !tbaa !37
  %13 = getelementptr inbounds nuw i8, ptr %6, i64 40
  store i64 0, ptr %13, align 8, !tbaa !38
  call void @llvm.lifetime.start.p0(i64 48, ptr nonnull %7) #25
  %14 = getelementptr inbounds nuw i8, ptr %7, i64 8
  store i32 0, ptr %14, align 8, !tbaa !34
  %15 = getelementptr inbounds nuw i8, ptr %7, i64 16
  store ptr null, ptr %15, align 8, !tbaa !35
  %16 = getelementptr inbounds nuw i8, ptr %7, i64 24
  store ptr %14, ptr %16, align 8, !tbaa !36
  %17 = getelementptr inbounds nuw i8, ptr %7, i64 32
  store ptr %14, ptr %17, align 8, !tbaa !37
  %18 = getelementptr inbounds nuw i8, ptr %7, i64 40
  store i64 0, ptr %18, align 8, !tbaa !38
  %19 = load ptr, ptr %2, align 8, !tbaa !73
  store ptr %19, ptr %8, align 8, !tbaa !73
  invoke void @_ZN4cvc58internal4expr12TermCanonize16getCanonicalTermENS0_12NodeTemplateILb0EEEbbRSt3mapISt4pairINS0_8TypeNodeEjEjSt4lessIS8_ESaIS6_IKS8_jEEERS5_IS4_NS3_ILb1EEES9_IS4_ESaIS6_IKS4_SG_EEE(ptr dead_on_unwind writable sret(%"class.cvc5::internal::NodeTemplate") align 8 %0, ptr noundef nonnull align 8 dereferenceable(216) %1, ptr noundef nonnull %8, i1 noundef zeroext %3, i1 noundef zeroext %4, ptr noundef nonnull align 8 dereferenceable(48) %6, ptr noundef nonnull align 8 dereferenceable(48) %7)
          to label %20 unwind label %29

20:                                               ; preds = %5
  %21 = load ptr, ptr %15, align 8, !tbaa !35
  invoke void @_ZNSt8_Rb_treeIN4cvc58internal12NodeTemplateILb0EEESt4pairIKS3_NS2_ILb1EEEESt10_Select1stIS7_ESt4lessIS3_ESaIS7_EE8_M_eraseEPSt13_Rb_tree_nodeIS7_E(ptr noundef nonnull align 8 dereferenceable(48) %7, ptr noundef %21)
          to label %_ZNSt3mapIN4cvc58internal12NodeTemplateILb0EEENS2_ILb1EEESt4lessIS3_ESaISt4pairIKS3_S4_EEED2Ev.exit unwind label %22

22:                                               ; preds = %20
  %23 = landingpad { ptr, i32 }
          catch ptr null
  %24 = extractvalue { ptr, i32 } %23, 0
  call void @__clang_call_terminate(ptr %24) #26
  unreachable

_ZNSt3mapIN4cvc58internal12NodeTemplateILb0EEENS2_ILb1EEESt4lessIS3_ESaISt4pairIKS3_S4_EEED2Ev.exit: ; preds = %20
  call void @llvm.lifetime.end.p0(i64 48, ptr nonnull %7) #25
  %25 = load ptr, ptr %10, align 8, !tbaa !35
  invoke void @_ZNSt8_Rb_treeISt4pairIN4cvc58internal8TypeNodeEjES0_IKS4_jESt10_Select1stIS6_ESt4lessIS4_ESaIS6_EE8_M_eraseEPSt13_Rb_tree_nodeIS6_E(ptr noundef nonnull align 8 dereferenceable(48) %6, ptr noundef %25)
          to label %_ZNSt3mapISt4pairIN4cvc58internal8TypeNodeEjEjSt4lessIS4_ESaIS0_IKS4_jEEED2Ev.exit unwind label %26

26:                                               ; preds = %_ZNSt3mapIN4cvc58internal12NodeTemplateILb0EEENS2_ILb1EEESt4lessIS3_ESaISt4pairIKS3_S4_EEED2Ev.exit
  %27 = landingpad { ptr, i32 }
          catch ptr null
  %28 = extractvalue { ptr, i32 } %27, 0
  call void @__clang_call_terminate(ptr %28) #26
  unreachable

_ZNSt3mapISt4pairIN4cvc58internal8TypeNodeEjEjSt4lessIS4_ESaIS0_IKS4_jEEED2Ev.exit: ; preds = %_ZNSt3mapIN4cvc58internal12NodeTemplateILb0EEENS2_ILb1EEESt4lessIS3_ESaISt4pairIKS3_S4_EEED2Ev.exit
  call void @llvm.lifetime.end.p0(i64 48, ptr nonnull %6) #25
  ret void

29:                                               ; preds = %5
  %30 = landingpad { ptr, i32 }
          cleanup
  call void @_ZNSt3mapIN4cvc58internal12NodeTemplateILb0EEENS2_ILb1EEESt4lessIS3_ESaISt4pairIKS3_S4_EEED2Ev(ptr noundef nonnull align 8 dereferenceable(48) %7) #25
  call void @llvm.lifetime.end.p0(i64 48, ptr nonnull %7) #25
  call void @_ZNSt3mapISt4pairIN4cvc58internal8TypeNodeEjEjSt4lessIS4_ESaIS0_IKS4_jEEED2Ev(ptr noundef nonnull align 8 dereferenceable(48) %6) #25
  call void @llvm.lifetime.end.p0(i64 48, ptr nonnull %6) #25
  resume { ptr, i32 } %30
}